; Function Attrs: mustprogress nounwind uwtable
define hidden void @_ZN14MacroAssembler4kmovE9KRegister8Register(ptr noundef nonnull align 8 dereferenceable(40) %0, i32 %1, i32 %2) local_unnamed_addr #0 align 2 {
  %4 = load i64, ptr @_ZN19Abstract_VM_Version9_featuresE, align 8
  %5 = and i64 %4, 4294967296
  %.not = icmp eq i64 %5, 0
  br i1 %.not, label %7, label %6

6:                                                ; preds = %3
  tail call void @_ZN9Assembler6kmovqlE9KRegister8Register(ptr noundef nonnull align 8 dereferenceable(40) %0, i32 %1, i32 %2) #18
  br label %8

7:                                                ; preds = %3
  tail call void @_ZN9Assembler6kmovwlE9KRegister8Register(ptr noundef nonnull align 8 dereferenceable(40) %0, i32 %1, i32 %2) #18
  br label %8

8:                                                ; preds = %7, %6
  ret void
}